target datalayout = "e-m:e-p270:32:32-p271:32:32-p272:64:64-i64:64-i128:128-f80:128-n8:16:32:64-S128"
target triple = "x86_64-pc-linux-gnu"

%struct._generic_SUNAdaptController = type { ptr, ptr, ptr }
%struct._generic_SUNAdaptController_Ops = type { ptr, ptr, ptr, ptr, ptr, ptr, ptr, ptr, ptr, ptr, ptr }
%struct.SUNAdaptControllerContent_MRIHTol_ = type { ptr, ptr, double, double, double }

; Function Attrs: nounwind uwtable
define ptr @SUNAdaptController_MRIHTol(ptr noundef %0, ptr noundef %1, ptr noundef %2) #0 {
  %4 = alloca ptr, align 8
  %5 = alloca ptr, align 8
  %6 = alloca ptr, align 8
  %7 = alloca ptr, align 8
  %8 = alloca ptr, align 8
  %9 = alloca ptr, align 8
  store ptr %0, ptr %4, align 8, !tbaa !3
  store ptr %1, ptr %5, align 8, !tbaa !3
  store ptr %2, ptr %6, align 8, !tbaa !8
  call void @llvm.lifetime.start.p0(i64 8, ptr %7) #5
  %10 = load ptr, ptr %6, align 8, !tbaa !8
  store ptr %10, ptr %7, align 8, !tbaa !8
  call void @llvm.lifetime.start.p0(i64 8, ptr %8) #5
  call void @llvm.lifetime.start.p0(i64 8, ptr %9) #5
  store ptr null, ptr %8, align 8, !tbaa !3
  %11 = load ptr, ptr %6, align 8, !tbaa !8
  %12 = call ptr @SUNAdaptController_NewEmpty(ptr noundef %11)
  store ptr %12, ptr %8, align 8, !tbaa !3
  %13 = load ptr, ptr %8, align 8, !tbaa !3
  %14 = getelementptr inbounds nuw %struct._generic_SUNAdaptController, ptr %13, i32 0, i32 1
  %15 = load ptr, ptr %14, align 8, !tbaa !10
  %16 = getelementptr inbounds nuw %struct._generic_SUNAdaptController_Ops, ptr %15, i32 0, i32 0
  store ptr @SUNAdaptController_GetType_MRIHTol, ptr %16, align 8, !tbaa !13
  %17 = load ptr, ptr %8, align 8, !tbaa !3
  %18 = getelementptr inbounds nuw %struct._generic_SUNAdaptController, ptr %17, i32 0, i32 1
  %19 = load ptr, ptr %18, align 8, !tbaa !10
  %20 = getelementptr inbounds nuw %struct._generic_SUNAdaptController_Ops, ptr %19, i32 0, i32 2
  store ptr @SUNAdaptController_EstimateStepTol_MRIHTol, ptr %20, align 8, !tbaa !15
  %21 = load ptr, ptr %8, align 8, !tbaa !3
  %22 = getelementptr inbounds nuw %struct._generic_SUNAdaptController, ptr %21, i32 0, i32 1
  %23 = load ptr, ptr %22, align 8, !tbaa !10
  %24 = getelementptr inbounds nuw %struct._generic_SUNAdaptController_Ops, ptr %23, i32 0, i32 4
  store ptr @SUNAdaptController_Reset_MRIHTol, ptr %24, align 8, !tbaa !16
  %25 = load ptr, ptr %8, align 8, !tbaa !3
  %26 = getelementptr inbounds nuw %struct._generic_SUNAdaptController, ptr %25, i32 0, i32 1
  %27 = load ptr, ptr %26, align 8, !tbaa !10
  %28 = getelementptr inbounds nuw %struct._generic_SUNAdaptController_Ops, ptr %27, i32 0, i32 5
  store ptr @SUNAdaptController_SetDefaults_MRIHTol, ptr %28, align 8, !tbaa !17
  %29 = load ptr, ptr %8, align 8, !tbaa !3
  %30 = getelementptr inbounds nuw %struct._generic_SUNAdaptController, ptr %29, i32 0, i32 1
  %31 = load ptr, ptr %30, align 8, !tbaa !10
  %32 = getelementptr inbounds nuw %struct._generic_SUNAdaptController_Ops, ptr %31, i32 0, i32 6
  store ptr @SUNAdaptController_Write_MRIHTol, ptr %32, align 8, !tbaa !18
  %33 = load ptr, ptr %8, align 8, !tbaa !3
  %34 = getelementptr inbounds nuw %struct._generic_SUNAdaptController, ptr %33, i32 0, i32 1
  %35 = load ptr, ptr %34, align 8, !tbaa !10
  %36 = getelementptr inbounds nuw %struct._generic_SUNAdaptController_Ops, ptr %35, i32 0, i32 7
  store ptr @SUNAdaptController_SetErrorBias_MRIHTol, ptr %36, align 8, !tbaa !19
  %37 = load ptr, ptr %8, align 8, !tbaa !3
  %38 = getelementptr inbounds nuw %struct._generic_SUNAdaptController, ptr %37, i32 0, i32 1
  %39 = load ptr, ptr %38, align 8, !tbaa !10
  %40 = getelementptr inbounds nuw %struct._generic_SUNAdaptController_Ops, ptr %39, i32 0, i32 9
  store ptr @SUNAdaptController_UpdateMRIHTol_MRIHTol, ptr %40, align 8, !tbaa !20
  %41 = load ptr, ptr %8, align 8, !tbaa !3
  %42 = getelementptr inbounds nuw %struct._generic_SUNAdaptController, ptr %41, i32 0, i32 1
  %43 = load ptr, ptr %42, align 8, !tbaa !10
  %44 = getelementptr inbounds nuw %struct._generic_SUNAdaptController_Ops, ptr %43, i32 0, i32 10
  store ptr @SUNAdaptController_Space_MRIHTol, ptr %44, align 8, !tbaa !21
  store ptr null, ptr %9, align 8, !tbaa !22
  %45 = call noalias ptr @malloc(i64 noundef 40) #6
  store ptr %45, ptr %9, align 8, !tbaa !22
  %46 = load ptr, ptr %4, align 8, !tbaa !3
  %47 = load ptr, ptr %9, align 8, !tbaa !22
  %48 = getelementptr inbounds nuw %struct.SUNAdaptControllerContent_MRIHTol_, ptr %47, i32 0, i32 0
  store ptr %46, ptr %48, align 8, !tbaa !24
  %49 = load ptr, ptr %5, align 8, !tbaa !3
  %50 = load ptr, ptr %9, align 8, !tbaa !22
  %51 = getelementptr inbounds nuw %struct.SUNAdaptControllerContent_MRIHTol_, ptr %50, i32 0, i32 1
  store ptr %49, ptr %51, align 8, !tbaa !27
  %52 = load ptr, ptr %9, align 8, !tbaa !22
  %53 = getelementptr inbounds nuw %struct.SUNAdaptControllerContent_MRIHTol_, ptr %52, i32 0, i32 2
  store double 2.000000e+01, ptr %53, align 8, !tbaa !28
  %54 = load ptr, ptr %9, align 8, !tbaa !22
  %55 = getelementptr inbounds nuw %struct.SUNAdaptControllerContent_MRIHTol_, ptr %54, i32 0, i32 3
  store double 1.000000e-05, ptr %55, align 8, !tbaa !29
  %56 = load ptr, ptr %9, align 8, !tbaa !22
  %57 = getelementptr inbounds nuw %struct.SUNAdaptControllerContent_MRIHTol_, ptr %56, i32 0, i32 4
  store double 1.000000e+00, ptr %57, align 8, !tbaa !30
  %58 = load ptr, ptr %9, align 8, !tbaa !22
  %59 = load ptr, ptr %8, align 8, !tbaa !3
  %60 = getelementptr inbounds nuw %struct._generic_SUNAdaptController, ptr %59, i32 0, i32 0
  store ptr %58, ptr %60, align 8, !tbaa !31
  %61 = load ptr, ptr %8, align 8, !tbaa !3
  call void @llvm.lifetime.end.p0(i64 8, ptr %9) #5
  call void @llvm.lifetime.end.p0(i64 8, ptr %8) #5
  call void @llvm.lifetime.end.p0(i64 8, ptr %7) #5
  ret ptr %61
}