; Function Attrs: nounwind uwtable
define noundef ptr @SUNAdaptController_MRIHTol(ptr noundef %0, ptr noundef %1, ptr noundef %2) local_unnamed_addr #0 {
  %4 = tail call ptr @SUNAdaptController_NewEmpty(ptr noundef %2) #9
  %5 = getelementptr inbounds nuw i8, ptr %4, i64 8
  %6 = load ptr, ptr %5, align 8, !tbaa !3
  store ptr @SUNAdaptController_GetType_MRIHTol, ptr %6, align 8, !tbaa !10
  %7 = getelementptr inbounds nuw i8, ptr %6, i64 16
  store ptr @SUNAdaptController_EstimateStepTol_MRIHTol, ptr %7, align 8, !tbaa !12
  %8 = getelementptr inbounds nuw i8, ptr %6, i64 32
  store ptr @SUNAdaptController_Reset_MRIHTol, ptr %8, align 8, !tbaa !13
  %9 = getelementptr inbounds nuw i8, ptr %6, i64 40
  store ptr @SUNAdaptController_SetDefaults_MRIHTol, ptr %9, align 8, !tbaa !14
  %10 = getelementptr inbounds nuw i8, ptr %6, i64 48
  store ptr @SUNAdaptController_Write_MRIHTol, ptr %10, align 8, !tbaa !15
  %11 = getelementptr inbounds nuw i8, ptr %6, i64 56
  store ptr @SUNAdaptController_SetErrorBias_MRIHTol, ptr %11, align 8, !tbaa !16
  %12 = getelementptr inbounds nuw i8, ptr %6, i64 72
  store ptr @SUNAdaptController_UpdateMRIHTol_MRIHTol, ptr %12, align 8, !tbaa !17
  %13 = getelementptr inbounds nuw i8, ptr %6, i64 80
  store ptr @SUNAdaptController_Space_MRIHTol, ptr %13, align 8, !tbaa !18
  %14 = tail call noalias dereferenceable_or_null(40) ptr @malloc(i64 noundef 40) #10
  store ptr %0, ptr %14, align 8, !tbaa !19
  %15 = getelementptr inbounds nuw i8, ptr %14, i64 8
  store ptr %1, ptr %15, align 8, !tbaa !23
  %16 = getelementptr inbounds nuw i8, ptr %14, i64 16
  store double 2.000000e+01, ptr %16, align 8, !tbaa !24
  %17 = getelementptr inbounds nuw i8, ptr %14, i64 24
  store double 1.000000e-05, ptr %17, align 8, !tbaa !25
  %18 = getelementptr inbounds nuw i8, ptr %14, i64 32
  store double 1.000000e+00, ptr %18, align 8, !tbaa !26
  store ptr %14, ptr %4, align 8, !tbaa !27
  ret ptr %4
}